target datalayout = "e-m:e-p270:32:32-p271:32:32-p272:64:64-i64:64-i128:128-f80:128-n8:16:32:64-S128"
target triple = "x86_64-pc-linux-gnu"

%"class.llvm::pdb::NativeEnumTypes" = type { %"class.llvm::pdb::IPDBEnumChildren", %"class.std::vector.0", i32, ptr }
%"class.llvm::pdb::IPDBEnumChildren" = type { ptr }
%"class.std::vector.0" = type { %"struct.std::_Vector_base.1" }
%"struct.std::_Vector_base.1" = type { %"struct.std::_Vector_base<llvm::codeview::TypeIndex, std::allocator<llvm::codeview::TypeIndex>>::_Vector_impl" }
%"struct.std::_Vector_base<llvm::codeview::TypeIndex, std::allocator<llvm::codeview::TypeIndex>>::_Vector_impl" = type { %"struct.std::_Vector_base<llvm::codeview::TypeIndex, std::allocator<llvm::codeview::TypeIndex>>::_Vector_impl_data" }
%"struct.std::_Vector_base<llvm::codeview::TypeIndex, std::allocator<llvm::codeview::TypeIndex>>::_Vector_impl_data" = type { ptr, ptr, ptr }
%"class.std::unique_ptr.63" = type { %"struct.std::__uniq_ptr_data.64" }
%"struct.std::__uniq_ptr_data.64" = type { %"class.std::__uniq_ptr_impl.65" }
%"class.std::__uniq_ptr_impl.65" = type { %"class.std::tuple.66" }
%"class.std::tuple.66" = type { %"struct.std::_Tuple_impl.67" }
%"struct.std::_Tuple_impl.67" = type { %"struct.std::_Head_base.70" }
%"struct.std::_Head_base.70" = type { ptr }

; Function Attrs: mustprogress nounwind uwtable
define dso_local void @_ZN4llvm3pdb15NativeEnumTypes7getNextEv(ptr dead_on_unwind noalias writable sret(%"class.std::unique_ptr.63") align 8 %0, ptr noundef nonnull align 8 dereferenceable(48) %1) unnamed_addr #0 align 2 {
  %3 = alloca ptr, align 8
  %4 = alloca ptr, align 8
  store ptr %0, ptr %3, align 8
  store ptr %1, ptr %4, align 8
  %5 = load ptr, ptr %4, align 8
  %6 = getelementptr inbounds nuw %"class.llvm::pdb::NativeEnumTypes", ptr %5, i32 0, i32 2
  %7 = load i32, ptr %6, align 8
  %8 = add i32 %7, 1
  store i32 %8, ptr %6, align 8
  %9 = load ptr, ptr %5, align 8
  %10 = getelementptr inbounds ptr, ptr %9, i64 3
  %11 = load ptr, ptr %10, align 8
  call void %11(ptr dead_on_unwind writable sret(%"class.std::unique_ptr.63") align 8 %0, ptr noundef nonnull align 8 dereferenceable(48) %5, i32 noundef %7)
  ret void
}